target datalayout = "e-m:e-p270:32:32-p271:32:32-p272:64:64-i64:64-i128:128-f80:128-n8:16:32:64-S128"
target triple = "x86_64-pc-linux-gnu"

%"class.cv::Scalar_" = type { %"class.cv::Vec" }
%"class.cv::Vec" = type { %"class.cv::Matx" }
%"class.cv::Matx" = type { [4 x double] }
%struct.anon.674 = type { i8 }

; Function Attrs: inlinehint mustprogress nounwind uwtable
define linkonce_odr hidden void @_ZN2cv4MatxIdLi4ELi1EEC2Ev(ptr noundef nonnull align 8 dereferenceable(32) %0) unnamed_addr #4 comdat align 2 {
  %2 = alloca ptr, align 8
  %3 = alloca i32, align 4
  store ptr %0, ptr %2, align 8, !tbaa !2267
  %4 = load ptr, ptr %2, align 8
  call void @llvm.lifetime.start.p0(i64 4, ptr %3) #3
  store i32 0, ptr %3, align 4, !tbaa !9
  br label %5

5:                                                ; preds = %14, %1
  %6 = load i32, ptr %3, align 4, !tbaa !9
  %7 = icmp slt i32 %6, 4
  br i1 %7, label %9, label %8

8:                                                ; preds = %5
  call void @llvm.lifetime.end.p0(i64 4, ptr %3) #3
  br label %17

9:                                                ; preds = %5
  %10 = getelementptr inbounds nuw %"class.cv::Matx", ptr %4, i32 0, i32 0
  %11 = load i32, ptr %3, align 4, !tbaa !9
  %12 = sext i32 %11 to i64
  %13 = getelementptr inbounds [4 x double], ptr %10, i64 0, i64 %12
  store double 0.000000e+00, ptr %13, align 8, !tbaa !66
  br label %14

14:                                               ; preds = %9
  %15 = load i32, ptr %3, align 4, !tbaa !9
  %16 = add nsw i32 %15, 1
  store i32 %16, ptr %3, align 4, !tbaa !9
  br label %5, !llvm.loop !2269

17:                                               ; preds = %8
  ret void
}

; Function Attrs: inlinehint mustprogress uwtable
define linkonce_odr hidden void @_ZN2cv3VecIdLi4EEC2Ev(ptr noundef nonnull align 8 dereferenceable(32) %0) unnamed_addr #10 comdat align 2 {
  %2 = alloca ptr, align 8
  store ptr %0, ptr %2, align 8, !tbaa !133
  %3 = load ptr, ptr %2, align 8
  call void @_ZN2cv4MatxIdLi4ELi1EEC2Ev(ptr noundef nonnull align 8 dereferenceable(32) %3)
  ret void
}

; Function Attrs: inlinehint mustprogress nounwind uwtable
define linkonce_odr hidden void @_ZN2cv4MatxIdLi4ELi1EEC2EPKd(ptr noundef nonnull align 8 dereferenceable(32) %0, ptr noundef %1) unnamed_addr #4 comdat align 2 {
  %3 = alloca ptr, align 8
  %4 = alloca ptr, align 8
  %5 = alloca i32, align 4
  store ptr %0, ptr %3, align 8, !tbaa !2267
  store ptr %1, ptr %4, align 8, !tbaa !271
  %6 = load ptr, ptr %3, align 8
  call void @llvm.lifetime.start.p0(i64 4, ptr %5) #3
  store i32 0, ptr %5, align 4, !tbaa !9
  br label %7

7:                                                ; preds = %21, %2
  %8 = load i32, ptr %5, align 4, !tbaa !9
  %9 = icmp slt i32 %8, 4
  br i1 %9, label %11, label %10

10:                                               ; preds = %7
  call void @llvm.lifetime.end.p0(i64 4, ptr %5) #3
  br label %24

11:                                               ; preds = %7
  %12 = load ptr, ptr %4, align 8, !tbaa !271
  %13 = load i32, ptr %5, align 4, !tbaa !9
  %14 = sext i32 %13 to i64
  %15 = getelementptr inbounds double, ptr %12, i64 %14
  %16 = load double, ptr %15, align 8, !tbaa !66
  %17 = getelementptr inbounds nuw %"class.cv::Matx", ptr %6, i32 0, i32 0
  %18 = load i32, ptr %5, align 4, !tbaa !9
  %19 = sext i32 %18 to i64
  %20 = getelementptr inbounds [4 x double], ptr %17, i64 0, i64 %19
  store double %16, ptr %20, align 8, !tbaa !66
  br label %21

21:                                               ; preds = %11
  %22 = load i32, ptr %5, align 4, !tbaa !9
  %23 = add nsw i32 %22, 1
  store i32 %23, ptr %5, align 4, !tbaa !9
  br label %7, !llvm.loop !2592

24:                                               ; preds = %10
  ret void
}

; Function Attrs: mustprogress nounwind uwtable
define linkonce_odr hidden void @_ZN2cv4util23suppress_unused_warningIA2_iEEvRKT_(ptr noundef nonnull align 4 dereferenceable(8) %0) #9 comdat {
  %2 = alloca ptr, align 8
  store ptr %0, ptr %2, align 8, !tbaa !93
  ret void
}

; Function Attrs: mustprogress nounwind uwtable
define linkonce_odr hidden void @_ZZN2cv6detail11postprocessIJNS_7Scalar_IdEEEEEvDpRT_ENUt_clEz(ptr noundef nonnull align 1 dereferenceable(1) %0, ...) #9 comdat align 2 {
  %2 = alloca ptr, align 8
  store ptr %0, ptr %2, align 8, !tbaa !270
  ret void
}

; Function Attrs: inlinehint mustprogress nounwind uwtable
define linkonce_odr hidden noundef nonnull align 8 dereferenceable(32) ptr @_ZN2cv7Scalar_IdEaSEOS1_(ptr noundef nonnull align 8 dereferenceable(32) %0, ptr noundef nonnull align 8 dereferenceable(32) %1) #4 comdat align 2 {
  %3 = alloca ptr, align 8
  %4 = alloca ptr, align 8
  store ptr %0, ptr %3, align 8, !tbaa !69
  store ptr %1, ptr %4, align 8, !tbaa !69
  %5 = load ptr, ptr %3, align 8
  %6 = load ptr, ptr %4, align 8, !tbaa !69
  %7 = getelementptr inbounds nuw %"class.cv::Matx", ptr %6, i32 0, i32 0
  %8 = getelementptr inbounds [4 x double], ptr %7, i64 0, i64 0
  %9 = load double, ptr %8, align 8, !tbaa !66
  %10 = getelementptr inbounds nuw %"class.cv::Matx", ptr %5, i32 0, i32 0
  %11 = getelementptr inbounds [4 x double], ptr %10, i64 0, i64 0
  store double %9, ptr %11, align 8, !tbaa !66
  %12 = load ptr, ptr %4, align 8, !tbaa !69
  %13 = getelementptr inbounds nuw %"class.cv::Matx", ptr %12, i32 0, i32 0
  %14 = getelementptr inbounds [4 x double], ptr %13, i64 0, i64 1
  %15 = load double, ptr %14, align 8, !tbaa !66
  %16 = getelementptr inbounds nuw %"class.cv::Matx", ptr %5, i32 0, i32 0
  %17 = getelementptr inbounds [4 x double], ptr %16, i64 0, i64 1
  store double %15, ptr %17, align 8, !tbaa !66
  %18 = load ptr, ptr %4, align 8, !tbaa !69
  %19 = getelementptr inbounds nuw %"class.cv::Matx", ptr %18, i32 0, i32 0
  %20 = getelementptr inbounds [4 x double], ptr %19, i64 0, i64 2
  %21 = load double, ptr %20, align 8, !tbaa !66
  %22 = getelementptr inbounds nuw %"class.cv::Matx", ptr %5, i32 0, i32 0
  %23 = getelementptr inbounds [4 x double], ptr %22, i64 0, i64 2
  store double %21, ptr %23, align 8, !tbaa !66
  %24 = load ptr, ptr %4, align 8, !tbaa !69
  %25 = getelementptr inbounds nuw %"class.cv::Matx", ptr %24, i32 0, i32 0
  %26 = getelementptr inbounds [4 x double], ptr %25, i64 0, i64 3
  %27 = load double, ptr %26, align 8, !tbaa !66
  %28 = getelementptr inbounds nuw %"class.cv::Matx", ptr %5, i32 0, i32 0
  %29 = getelementptr inbounds [4 x double], ptr %28, i64 0, i64 3
  store double %27, ptr %29, align 8, !tbaa !66
  ret ptr %5
}

; Function Attrs: inlinehint mustprogress uwtable
define linkonce_odr hidden void @_ZN2cv7Scalar_IdEC2Ed(ptr noundef nonnull align 8 dereferenceable(32) %0, double noundef %1) unnamed_addr #10 comdat align 2 {
  %3 = alloca ptr, align 8
  %4 = alloca double, align 8
  store ptr %0, ptr %3, align 8, !tbaa !69
  store double %1, ptr %4, align 8, !tbaa !66
  %5 = load ptr, ptr %3, align 8
  call void @_ZN2cv3VecIdLi4EEC2Ev(ptr noundef nonnull align 8 dereferenceable(32) %5)
  %6 = load double, ptr %4, align 8, !tbaa !66
  %7 = getelementptr inbounds nuw %"class.cv::Matx", ptr %5, i32 0, i32 0
  %8 = getelementptr inbounds [4 x double], ptr %7, i64 0, i64 0
  store double %6, ptr %8, align 8, !tbaa !66
  %9 = getelementptr inbounds nuw %"class.cv::Matx", ptr %5, i32 0, i32 0
  %10 = getelementptr inbounds [4 x double], ptr %9, i64 0, i64 3
  store double 0.000000e+00, ptr %10, align 8, !tbaa !66
  %11 = getelementptr inbounds nuw %"class.cv::Matx", ptr %5, i32 0, i32 0
  %12 = getelementptr inbounds [4 x double], ptr %11, i64 0, i64 2
  store double 0.000000e+00, ptr %12, align 8, !tbaa !66
  %13 = getelementptr inbounds nuw %"class.cv::Matx", ptr %5, i32 0, i32 0
  %14 = getelementptr inbounds [4 x double], ptr %13, i64 0, i64 1
  store double 0.000000e+00, ptr %14, align 8, !tbaa !66
  ret void
}

; Function Attrs: inlinehint mustprogress nounwind uwtable
define linkonce_odr dso_local noundef nonnull align 8 dereferenceable(8) ptr @_ZSt3minIdERKT_S2_S2_(ptr noundef nonnull align 8 dereferenceable(8) %0, ptr noundef nonnull align 8 dereferenceable(8) %1) #4 comdat {
  %3 = alloca ptr, align 8
  %4 = alloca ptr, align 8
  %5 = alloca ptr, align 8
  store ptr %0, ptr %4, align 8, !tbaa !271
  store ptr %1, ptr %5, align 8, !tbaa !271
  %6 = load ptr, ptr %5, align 8, !tbaa !271
  %7 = load double, ptr %6, align 8, !tbaa !66
  %8 = load ptr, ptr %4, align 8, !tbaa !271
  %9 = load double, ptr %8, align 8, !tbaa !66
  %10 = fcmp olt double %7, %9
  br i1 %10, label %11, label %13

11:                                               ; preds = %2
  %12 = load ptr, ptr %5, align 8, !tbaa !271
  store ptr %12, ptr %3, align 8
  br label %15

13:                                               ; preds = %2
  %14 = load ptr, ptr %4, align 8, !tbaa !271
  store ptr %14, ptr %3, align 8
  br label %15

15:                                               ; preds = %13, %11
  %16 = load ptr, ptr %3, align 8
  ret ptr %16
}

; Function Attrs: inlinehint mustprogress nounwind uwtable
define linkonce_odr hidden noundef nonnull align 8 dereferenceable(8) ptr @_ZNK2cv3VecIdLi4EEixEi(ptr noundef nonnull align 8 dereferenceable(32) %0, i32 noundef %1) #4 comdat align 2 {
  %3 = alloca ptr, align 8
  %4 = alloca i32, align 4
  store ptr %0, ptr %3, align 8, !tbaa !133
  store i32 %1, ptr %4, align 4, !tbaa !9
  %5 = load ptr, ptr %3, align 8
  %6 = getelementptr inbounds nuw %"class.cv::Matx", ptr %5, i32 0, i32 0
  %7 = load i32, ptr %4, align 4, !tbaa !9
  %8 = sext i32 %7 to i64
  %9 = getelementptr inbounds [4 x double], ptr %6, i64 0, i64 %8
  ret ptr %9
}

; Function Attrs: inlinehint mustprogress uwtable
define linkonce_odr hidden void @_ZN2cv3VecIdLi4EEC2ERKS1_(ptr noundef nonnull align 8 dereferenceable(32) %0, ptr noundef nonnull align 8 dereferenceable(32) %1) unnamed_addr #10 comdat align 2 {
  %3 = alloca ptr, align 8
  %4 = alloca ptr, align 8
  store ptr %0, ptr %3, align 8, !tbaa !133
  store ptr %1, ptr %4, align 8, !tbaa !133
  %5 = load ptr, ptr %3, align 8
  %6 = load ptr, ptr %4, align 8, !tbaa !133
  %7 = getelementptr inbounds nuw %"class.cv::Matx", ptr %6, i32 0, i32 0
  %8 = getelementptr inbounds [4 x double], ptr %7, i64 0, i64 0
  call void @_ZN2cv4MatxIdLi4ELi1EEC2EPKd(ptr noundef nonnull align 8 dereferenceable(32) %5, ptr noundef %8)
  ret void
}

; Function Attrs: mustprogress uwtable
define linkonce_odr hidden void @_ZN2cv6detail11postprocessIJNS_7Scalar_IdEEEEEvDpRT_(ptr noundef nonnull align 8 dereferenceable(32) %0) #6 comdat {
  %2 = alloca ptr, align 8
  %3 = alloca %struct.anon.674, align 1
  %4 = alloca [2 x i32], align 4
  store ptr %0, ptr %2, align 8, !tbaa !69
  call void @llvm.lifetime.start.p0(i64 1, ptr %3) #3
  call void @llvm.lifetime.start.p0(i64 8, ptr %4) #3
  store i32 0, ptr %4, align 4, !tbaa !9
  %5 = getelementptr inbounds i32, ptr %4, i64 1
  %6 = load ptr, ptr %2, align 8, !tbaa !69
  call void (ptr, ...) @_ZZN2cv6detail11postprocessIJNS_7Scalar_IdEEEEEvDpRT_ENUt_clEz(ptr noundef nonnull align 1 dereferenceable(1) %3, ptr noundef %6)
  store i32 0, ptr %5, align 4, !tbaa !9
  call void @_ZN2cv4util23suppress_unused_warningIA2_iEEvRKT_(ptr noundef nonnull align 4 dereferenceable(8) %4)
  call void @llvm.lifetime.end.p0(i64 8, ptr %4) #3
  call void @llvm.lifetime.end.p0(i64 1, ptr %3) #3
  ret void
}

; Function Attrs: mustprogress uwtable
define internal void @_ZN11opencv_test12_GLOBAL__N_113GCPUMinScalar3runERKN2cv7Scalar_IdEES6_RS4_(ptr noundef nonnull align 8 dereferenceable(32) %0, ptr noundef nonnull align 8 dereferenceable(32) %1, ptr noundef nonnull align 8 dereferenceable(32) %2) #6 align 2 {
  %4 = alloca ptr, align 8
  %5 = alloca ptr, align 8
  %6 = alloca ptr, align 8
  %7 = alloca %"class.cv::Scalar_", align 8
  store ptr %0, ptr %4, align 8, !tbaa !69
  store ptr %1, ptr %5, align 8, !tbaa !69
  store ptr %2, ptr %6, align 8, !tbaa !69
  call void @llvm.lifetime.start.p0(i64 32, ptr %7) #3
  %8 = load ptr, ptr %4, align 8, !tbaa !69
  %9 = call noundef nonnull align 8 dereferenceable(8) ptr @_ZNK2cv3VecIdLi4EEixEi(ptr noundef nonnull align 8 dereferenceable(32) %8, i32 noundef 0)
  %10 = load ptr, ptr %5, align 8, !tbaa !69
  %11 = call noundef nonnull align 8 dereferenceable(8) ptr @_ZNK2cv3VecIdLi4EEixEi(ptr noundef nonnull align 8 dereferenceable(32) %10, i32 noundef 0)
  %12 = call noundef nonnull align 8 dereferenceable(8) ptr @_ZSt3minIdERKT_S2_S2_(ptr noundef nonnull align 8 dereferenceable(8) %9, ptr noundef nonnull align 8 dereferenceable(8) %11)
  %13 = load double, ptr %12, align 8, !tbaa !66
  call void @_ZN2cv7Scalar_IdEC2Ed(ptr noundef nonnull align 8 dereferenceable(32) %7, double noundef %13)
  %14 = load ptr, ptr %6, align 8, !tbaa !69
  %15 = call noundef nonnull align 8 dereferenceable(32) ptr @_ZN2cv7Scalar_IdEaSEOS1_(ptr noundef nonnull align 8 dereferenceable(32) %14, ptr noundef nonnull align 8 dereferenceable(32) %7) #3
  call void @llvm.lifetime.end.p0(i64 32, ptr %7) #3
  ret void
}

; Function Attrs: inlinehint mustprogress uwtable
define linkonce_odr hidden void @_ZN2cv7Scalar_IdEC2ERKS1_(ptr noundef nonnull align 8 dereferenceable(32) %0, ptr noundef nonnull align 8 dereferenceable(32) %1) unnamed_addr #10 comdat align 2 {
  %3 = alloca ptr, align 8
  %4 = alloca ptr, align 8
  store ptr %0, ptr %3, align 8, !tbaa !69
  store ptr %1, ptr %4, align 8, !tbaa !69
  %5 = load ptr, ptr %3, align 8
  %6 = load ptr, ptr %4, align 8, !tbaa !69
  call void @_ZN2cv3VecIdLi4EEC2ERKS1_(ptr noundef nonnull align 8 dereferenceable(32) %5, ptr noundef nonnull align 8 dereferenceable(32) %6)
  ret void
}

; Function Attrs: mustprogress uwtable
define internal void @_ZN2cv6detail13OCVCallHelperIN11opencv_test12_GLOBAL__N_113GCPUMinScalarESt5tupleIJNS_7GScalarES6_EES5_IJS6_EEE20call_and_postprocessIJNS_7Scalar_IdEESC_EE4callIJRSC_EEEvOSC_SG_DpOT_(ptr noundef nonnull align 8 dereferenceable(32) %0, ptr noundef nonnull align 8 dereferenceable(32) %1, ptr noundef nonnull align 8 dereferenceable(32) %2) #6 align 2 {
  %4 = alloca ptr, align 8
  %5 = alloca ptr, align 8
  %6 = alloca ptr, align 8
  store ptr %0, ptr %4, align 8, !tbaa !69
  store ptr %1, ptr %5, align 8, !tbaa !69
  store ptr %2, ptr %6, align 8, !tbaa !69
  %7 = load ptr, ptr %4, align 8, !tbaa !69
  %8 = load ptr, ptr %5, align 8, !tbaa !69
  %9 = load ptr, ptr %6, align 8, !tbaa !69
  call void @_ZN11opencv_test12_GLOBAL__N_113GCPUMinScalar3runERKN2cv7Scalar_IdEES6_RS4_(ptr noundef nonnull align 8 dereferenceable(32) %7, ptr noundef nonnull align 8 dereferenceable(32) %8, ptr noundef nonnull align 8 dereferenceable(32) %9)
  %10 = load ptr, ptr %6, align 8, !tbaa !69
  call void @_ZN2cv6detail11postprocessIJNS_7Scalar_IdEEEEEvDpRT_(ptr noundef nonnull align 8 dereferenceable(32) %10)
  ret void
}

; Function Attrs: mustprogress uwtable
define linkonce_odr hidden noundef nonnull align 8 dereferenceable(32) ptr @_ZN2cv6detail7get_outINS_7GScalarEE3getERNS_11GCPUContextEi(ptr noundef nonnull align 8 dereferenceable(96) %0, i32 noundef %1) #6 comdat align 2 {
  %3 = alloca ptr, align 8
  %4 = alloca i32, align 4
  store ptr %0, ptr %3, align 8, !tbaa !2582
  store i32 %1, ptr %4, align 4, !tbaa !9
  %5 = load ptr, ptr %3, align 8, !tbaa !2582
  %6 = load i32, ptr %4, align 4, !tbaa !9
  %7 = call noundef nonnull align 8 dereferenceable(32) ptr @_ZN2cv11GCPUContext7outValREi(ptr noundef nonnull align 8 dereferenceable(96) %5, i32 noundef %6)
  ret ptr %7
}

; Function Attrs: mustprogress uwtable
define linkonce_odr hidden void @_ZN2cv6detail6get_inINS_7GScalarEE3getERNS_11GCPUContextEi(ptr dead_on_unwind noalias writable sret(%"class.cv::Scalar_") align 8 %0, ptr noundef nonnull align 8 dereferenceable(96) %1, i32 noundef %2) #6 comdat align 2 {
  %4 = alloca ptr, align 8
  %5 = alloca ptr, align 8
  %6 = alloca i32, align 4
  store ptr %0, ptr %4, align 8
  store ptr %1, ptr %5, align 8, !tbaa !2582
  store i32 %2, ptr %6, align 4, !tbaa !9
  %7 = load ptr, ptr %5, align 8, !tbaa !2582
  %8 = load i32, ptr %6, align 4, !tbaa !9
  %9 = call noundef nonnull align 8 dereferenceable(32) ptr @_ZN2cv11GCPUContext5inValEi(ptr noundef nonnull align 8 dereferenceable(96) %7, i32 noundef %8)
  call void @_ZN2cv7Scalar_IdEC2ERKS1_(ptr noundef nonnull align 8 dereferenceable(32) %0, ptr noundef nonnull align 8 dereferenceable(32) %9)
  ret void
}

; Function Attrs: mustprogress uwtable
define internal void @_ZN2cv6detail13OCVCallHelperIN11opencv_test12_GLOBAL__N_113GCPUMinScalarESt5tupleIJNS_7GScalarES6_EES5_IJS6_EEE9call_implIJLi0ELi1EEJLi0EEEEvRNS_11GCPUContextENS0_3SeqIJXspT_EEEENSD_IJXspT0_EEEE(ptr noundef nonnull align 8 dereferenceable(96) %0) #6 align 2 {
  %2 = alloca ptr, align 8
  %3 = alloca %"class.cv::Scalar_", align 8
  %4 = alloca %"class.cv::Scalar_", align 8
  store ptr %0, ptr %2, align 8, !tbaa !2582
  call void @llvm.lifetime.start.p0(i64 32, ptr %3) #3
  %5 = load ptr, ptr %2, align 8, !tbaa !2582
  call void @_ZN2cv6detail6get_inINS_7GScalarEE3getERNS_11GCPUContextEi(ptr dead_on_unwind writable sret(%"class.cv::Scalar_") align 8 %3, ptr noundef nonnull align 8 dereferenceable(96) %5, i32 noundef 0)
  call void @llvm.lifetime.start.p0(i64 32, ptr %4) #3
  %6 = load ptr, ptr %2, align 8, !tbaa !2582
  call void @_ZN2cv6detail6get_inINS_7GScalarEE3getERNS_11GCPUContextEi(ptr dead_on_unwind writable sret(%"class.cv::Scalar_") align 8 %4, ptr noundef nonnull align 8 dereferenceable(96) %6, i32 noundef 1)
  %7 = load ptr, ptr %2, align 8, !tbaa !2582
  %8 = call noundef nonnull align 8 dereferenceable(32) ptr @_ZN2cv6detail7get_outINS_7GScalarEE3getERNS_11GCPUContextEi(ptr noundef nonnull align 8 dereferenceable(96) %7, i32 noundef 0)
  call void @_ZN2cv6detail13OCVCallHelperIN11opencv_test12_GLOBAL__N_113GCPUMinScalarESt5tupleIJNS_7GScalarES6_EES5_IJS6_EEE20call_and_postprocessIJNS_7Scalar_IdEESC_EE4callIJRSC_EEEvOSC_SG_DpOT_(ptr noundef nonnull align 8 dereferenceable(32) %3, ptr noundef nonnull align 8 dereferenceable(32) %4, ptr noundef nonnull align 8 dereferenceable(32) %8)
  call void @llvm.lifetime.end.p0(i64 32, ptr %4) #3
  call void @llvm.lifetime.end.p0(i64 32, ptr %3) #3
  ret void
}

; Function Attrs: mustprogress uwtable
define internal void @_ZN2cv6detail13OCVCallHelperIN11opencv_test12_GLOBAL__N_113GCPUMinScalarESt5tupleIJNS_7GScalarES6_EES5_IJS6_EEE4callERNS_11GCPUContextE(ptr noundef nonnull align 8 dereferenceable(96) %0) #6 align 2 {
  %2 = alloca ptr, align 8
  store ptr %0, ptr %2, align 8, !tbaa !2582
  %3 = load ptr, ptr %2, align 8, !tbaa !2582
  call void @_ZN2cv6detail13OCVCallHelperIN11opencv_test12_GLOBAL__N_113GCPUMinScalarESt5tupleIJNS_7GScalarES6_EES5_IJS6_EEE9call_implIJLi0ELi1EEJLi0EEEEvRNS_11GCPUContextENS0_3SeqIJXspT_EEEENSD_IJXspT0_EEEE(ptr noundef nonnull align 8 dereferenceable(96) %3)
  ret void
}