; Function Attrs: mustprogress uwtable
define internal void @_ZN2cv6detail13OCVCallHelperIN11opencv_test12_GLOBAL__N_113GCPUMinScalarESt5tupleIJNS_7GScalarES6_EES5_IJS6_EEE4callERNS_11GCPUContextE(ptr noundef nonnull align 8 dereferenceable(96) %0) #4 align 2 {
  %2 = tail call noundef nonnull align 8 dereferenceable(32) ptr @_ZN2cv11GCPUContext5inValEi(ptr noundef nonnull align 8 dereferenceable(96) %0, i32 noundef 0), !noalias !1348
  %.sroa.04.0.copyload.i = load double, ptr %2, align 8, !tbaa !127
  %3 = tail call noundef nonnull align 8 dereferenceable(32) ptr @_ZN2cv11GCPUContext5inValEi(ptr noundef nonnull align 8 dereferenceable(96) %0, i32 noundef 1), !noalias !1351
  %.sroa.0.0.copyload.i = load double, ptr %3, align 8, !tbaa !127
  %4 = tail call noundef nonnull align 8 dereferenceable(32) ptr @_ZN2cv11GCPUContext7outValREi(ptr noundef nonnull align 8 dereferenceable(96) %0, i32 noundef 0)
  %5 = fcmp olt double %.sroa.0.0.copyload.i, %.sroa.04.0.copyload.i
  %6 = select i1 %5, double %.sroa.0.0.copyload.i, double %.sroa.04.0.copyload.i
  store double %6, ptr %4, align 8, !tbaa !127
  %7 = getelementptr inbounds nuw i8, ptr %4, i64 8
  tail call void @llvm.memset.p0.i64(ptr noundef nonnull align 8 dereferenceable(24) %7, i8 0, i64 24, i1 false)
  ret void
}